; Function Attrs: nofree norecurse nosync nounwind memory(readwrite, inaccessiblemem: none) uwtable
define internal void @aderivative_s32p(ptr noundef readonly captures(none) %0, ptr noundef readonly captures(none) %1, ptr noundef readonly captures(none) %2, i32 noundef %3, i32 noundef %4) #5 {
  %6 = icmp sgt i32 %4, 0
  %7 = icmp sgt i32 %3, 0
  %or.cond = and i1 %6, %7
  br i1 %or.cond, label %.lr.ph.us.preheader, label %._crit_edge24

.lr.ph.us.preheader:                              ; preds = %5
  %wide.trip.count30 = zext nneg i32 %4 to i64
  %wide.trip.count = zext nneg i32 %3 to i64
  br label %.lr.ph.us

.lr.ph.us:                                        ; preds = %.lr.ph.us.preheader, %._crit_edge.us
  %indvars.iv27 = phi i64 [ 0, %.lr.ph.us.preheader ], [ %indvars.iv.next28, %._crit_edge.us ]
  %8 = getelementptr inbounds nuw ptr, ptr %2, i64 %indvars.iv27
  %9 = load ptr, ptr %8, align 8, !tbaa !51
  %10 = getelementptr inbounds nuw ptr, ptr %0, i64 %indvars.iv27
  %11 = load ptr, ptr %10, align 8, !tbaa !51
  %12 = getelementptr inbounds nuw ptr, ptr %1, i64 %indvars.iv27
  %13 = load ptr, ptr %12, align 8, !tbaa !51
  %.pre = load i32, ptr %13, align 4, !tbaa !61
  br label %14

14:                                               ; preds = %.lr.ph.us, %14
  %15 = phi i32 [ %.pre, %.lr.ph.us ], [ %17, %14 ]
  %indvars.iv = phi i64 [ 0, %.lr.ph.us ], [ %indvars.iv.next, %14 ]
  %16 = getelementptr inbounds nuw i32, ptr %9, i64 %indvars.iv
  %17 = load i32, ptr %16, align 4, !tbaa !61
  %18 = sub nsw i32 %17, %15
  %19 = getelementptr inbounds nuw i32, ptr %11, i64 %indvars.iv
  store i32 %18, ptr %19, align 4, !tbaa !61
  store i32 %17, ptr %13, align 4, !tbaa !61
  %indvars.iv.next = add nuw nsw i64 %indvars.iv, 1
  %exitcond.not = icmp eq i64 %indvars.iv.next, %wide.trip.count
  br i1 %exitcond.not, label %._crit_edge.us, label %14, !llvm.loop !62

._crit_edge.us:                                   ; preds = %14
  %indvars.iv.next28 = add nuw nsw i64 %indvars.iv27, 1
  %exitcond31.not = icmp eq i64 %indvars.iv.next28, %wide.trip.count30
  br i1 %exitcond31.not, label %._crit_edge24, label %.lr.ph.us, !llvm.loop !63

._crit_edge24:                                    ; preds = %._crit_edge.us, %5
  ret void
}